target datalayout = "e-m:e-p270:32:32-p271:32:32-p272:64:64-i64:64-i128:128-f80:128-n8:16:32:64-S128"
target triple = "x86_64-pc-linux-gnu"

; Function Attrs: nounwind uwtable
define internal i32 @attempt_mux_level1_header_parse(i32 noundef %0, i32 noundef %1, ptr noundef %2) #0 {
  %4 = alloca i32, align 4
  %5 = alloca i32, align 4
  %6 = alloca i32, align 4
  %7 = alloca ptr, align 8
  store i32 %0, ptr %5, align 4
  store i32 %1, ptr %6, align 4
  store ptr %2, ptr %7, align 8
  %8 = load i32, ptr %5, align 4
  %9 = icmp ult i32 %8, 2
  br i1 %9, label %10, label %11

10:                                               ; preds = %3
  store i32 0, ptr %4, align 4
  br label %25

11:                                               ; preds = %3
  %12 = load i32, ptr %6, align 4
  %13 = and i32 %12, 65535
  store i32 %13, ptr %6, align 4
  %14 = load i32, ptr %6, align 4
  %15 = icmp eq i32 %14, 57677
  br i1 %15, label %16, label %17

16:                                               ; preds = %11
  store i32 0, ptr %4, align 4
  br label %25

17:                                               ; preds = %11
  %18 = load i32, ptr %6, align 4
  %19 = lshr i32 %18, 12
  %20 = and i32 %19, 255
  %21 = trunc i32 %20 to i8
  %22 = zext i8 %21 to i32
  %23 = add i32 %22, 3
  %24 = load ptr, ptr %7, align 8
  store i32 %23, ptr %24, align 4
  store i32 1, ptr %4, align 4
  br label %25

25:                                               ; preds = %17, %16, %10
  %26 = load i32, ptr %4, align 4
  ret i32 %26
}