; Function Attrs: mustprogress nofree norecurse nosync nounwind willreturn memory(argmem: write) uwtable
define internal range(i32 0, 2) i32 @attempt_mux_level1_header_parse(i32 noundef %0, i32 noundef %1, ptr noundef writeonly captures(none) %2) #8 {
  %4 = icmp ult i32 %0, 2
  br i1 %4, label %11, label %5

5:                                                ; preds = %3
  %6 = and i32 %1, 65535
  %7 = icmp eq i32 %6, 57677
  br i1 %7, label %11, label %8

8:                                                ; preds = %5
  %9 = lshr i32 %6, 12
  %10 = add nuw nsw i32 %9, 3
  store i32 %10, ptr %2, align 4
  br label %11

11:                                               ; preds = %5, %3, %8
  %.0 = phi i32 [ 1, %8 ], [ 0, %3 ], [ 0, %5 ]
  ret i32 %.0
}